target datalayout = "e-m:e-p270:32:32-p271:32:32-p272:64:64-i64:64-i128:128-f80:128-n8:16:32:64-S128"
target triple = "x86_64-pc-linux-gnu"

%struct.recent_settings_tag = type { i8, i8, i8, i8, i8, i8, i8, i8, i8, i8, i32, i32, i32, i32, i32, i32, i8, i8, i32, i32, i8, i8, i8, i32, i32, i32, i32, i32, i32, i32, i32, i32, i8, i8, i32, i32, ptr, ptr, ptr, i8, i8, ptr, ptr, ptr, ptr, ptr, i32, ptr, i8, ptr, ptr, ptr }
%class.QString = type { %struct.QArrayDataPointer }
%struct.QArrayDataPointer = type { ptr, ptr, i64 }
%class.ShowPacketBytesDialog = type { %class.WiresharkDialog.base, ptr, ptr, %class.QByteArray, %class.QString, %class.QString, ptr, ptr, ptr, i8, i32, i32, %class.QImage }
%class.WiresharkDialog.base = type <{ %class.GeometryStateDialog, ptr, i8, [7 x i8], %class.QString, %class.QList, i32, i8 }>
%class.GeometryStateDialog = type { %class.QDialog, %class.QString, ptr }
%class.QDialog = type { %class.QWidget }
%class.QWidget = type { %class.QObject, %class.QPaintDevice.base, ptr }
%class.QObject = type { ptr, %class.QScopedPointer }
%class.QScopedPointer = type { ptr }
%class.QPaintDevice.base = type <{ ptr, i16 }>
%class.QList = type { %struct.QArrayDataPointer.0 }
%struct.QArrayDataPointer.0 = type { ptr, ptr, i64 }
%class.QByteArray = type { %struct.QArrayDataPointer.1 }
%struct.QArrayDataPointer.1 = type { ptr, ptr, i64 }
%class.QImage = type { %class.QPaintDevice.base, ptr }
%struct.field_info = type { ptr, i32, i32, i32, i32, i32, i32, ptr, ptr, ptr, i32, i32 }

@recent = external global %struct.recent_settings_tag, align 8

; Function Attrs: mustprogress null_pointer_is_valid sspstrong uwtable
define void @_ZN21ShowPacketBytesDialog12showSelectedEii(ptr noundef align 8 dereferenceable_or_null(296) %0, i32 noundef %1, i32 noundef %2) #0 align 2 {
  %4 = alloca ptr, align 8
  %5 = alloca i32, align 4
  %6 = alloca i32, align 4
  store ptr %0, ptr %4, align 8
  store i32 %1, ptr %5, align 4
  store i32 %2, ptr %6, align 4
  %7 = load ptr, ptr %4, align 8
  %8 = load i32, ptr %6, align 4
  %9 = icmp eq i32 %8, -1
  br i1 %9, label %10, label %16

10:                                               ; preds = %3
  %11 = getelementptr inbounds nuw %class.ShowPacketBytesDialog, ptr %7, i32 0, i32 2
  %12 = load ptr, ptr %11, align 8
  %13 = getelementptr inbounds nuw %struct.field_info, ptr %12, i32 0, i32 2
  %14 = load i32, ptr %13, align 4
  %15 = sub i32 %14, 1
  call void @_ZN21ShowPacketBytesDialog14setStartAndEndEii(ptr noundef align 8 dereferenceable_or_null(296) %7, i32 noundef 0, i32 noundef %15)
  br label %35

16:                                               ; preds = %3
  %17 = load i32, ptr getelementptr inbounds nuw (%struct.recent_settings_tag, ptr @recent, i32 0, i32 27), align 4
  %18 = icmp eq i32 %17, 8
  br i1 %18, label %19, label %25

19:                                               ; preds = %16
  %20 = load i32, ptr %5, align 4
  %21 = sdiv i32 %20, 2
  store i32 %21, ptr %5, align 4
  %22 = load i32, ptr %6, align 4
  %23 = add i32 %22, 1
  %24 = sdiv i32 %23, 2
  store i32 %24, ptr %6, align 4
  br label %25

25:                                               ; preds = %19, %16
  %26 = getelementptr inbounds nuw %class.ShowPacketBytesDialog, ptr %7, i32 0, i32 10
  %27 = load i32, ptr %26, align 4
  %28 = load i32, ptr %5, align 4
  %29 = add i32 %27, %28
  %30 = getelementptr inbounds nuw %class.ShowPacketBytesDialog, ptr %7, i32 0, i32 10
  %31 = load i32, ptr %30, align 4
  %32 = load i32, ptr %6, align 4
  %33 = add i32 %31, %32
  %34 = sub i32 %33, 1
  call void @_ZN21ShowPacketBytesDialog14setStartAndEndEii(ptr noundef align 8 dereferenceable_or_null(296) %7, i32 noundef %29, i32 noundef %34)
  br label %35

35:                                               ; preds = %25, %10
  call void @_ZN21ShowPacketBytesDialog16updateFieldBytesEb(ptr noundef align 8 dereferenceable_or_null(296) %7, i1 noundef zeroext false)
  ret void
}