; Function Attrs: mustprogress null_pointer_is_valid sspstrong uwtable
define void @_ZN21ShowPacketBytesDialog12showSelectedEii(ptr noundef align 8 dereferenceable_or_null(296) initializes((264, 268)) %0, i32 noundef %1, i32 noundef %2) local_unnamed_addr #0 align 2 {
  %4 = icmp eq i32 %2, -1
  br i1 %4, label %5, label %11

5:                                                ; preds = %3
  %6 = getelementptr inbounds nuw i8, ptr %0, i64 152
  %7 = load ptr, ptr %6, align 8
  %8 = getelementptr inbounds nuw i8, ptr %7, i64 12
  %9 = load i32, ptr %8, align 4
  %10 = add i32 %9, -1
  tail call void @_ZN21ShowPacketBytesDialog14setStartAndEndEii(ptr noundef align 8 dereferenceable_or_null(296) %0, i32 noundef 0, i32 noundef %10)
  br label %24

11:                                               ; preds = %3
  %12 = load i32, ptr getelementptr inbounds nuw (i8, ptr @recent, i64 68), align 4
  %13 = icmp eq i32 %12, 8
  br i1 %13, label %14, label %18

14:                                               ; preds = %11
  %15 = sdiv i32 %1, 2
  %16 = add nuw i32 %2, 1
  %17 = sdiv i32 %16, 2
  br label %18

18:                                               ; preds = %14, %11
  %.05 = phi i32 [ %15, %14 ], [ %1, %11 ]
  %.0 = phi i32 [ %17, %14 ], [ %2, %11 ]
  %19 = getelementptr inbounds nuw i8, ptr %0, i64 260
  %20 = load i32, ptr %19, align 4
  %21 = add i32 %20, %.05
  %22 = add i32 %.0, -1
  %23 = add i32 %22, %20
  tail call void @_ZN21ShowPacketBytesDialog14setStartAndEndEii(ptr noundef align 8 dereferenceable_or_null(296) %0, i32 noundef %21, i32 noundef %23)
  br label %24

24:                                               ; preds = %18, %5
  tail call void @_ZN21ShowPacketBytesDialog16updateFieldBytesEb(ptr noundef align 8 dereferenceable_or_null(296) %0, i1 noundef zeroext false)
  ret void
}